target datalayout = "e-m:e-p270:32:32-p271:32:32-p272:64:64-i64:64-i128:128-f80:128-n8:16:32:64-S128"
target triple = "x86_64-pc-linux-gnu"

%struct.expert_field = type { i32, i32 }

@hf_ip_opt_ptr = internal global i32 0, align 4
@hf_ip_rec_rt = internal global i32 0, align 4
@hf_ip_rec_rt_host = internal global i32 0, align 4
@hf_ip_empty_rt = internal global i32 0, align 4
@hf_ip_empty_rt_host = internal global i32 0, align 4
@ett_ip_option_route = internal global i32 0, align 4
@ei_ip_opt_ptr_before_address = internal global %struct.expert_field zeroinitializer, align 4
@ei_ip_opt_ptr_middle_address = internal global %struct.expert_field zeroinitializer, align 4
@ei_ip_subopt_too_long = internal global %struct.expert_field zeroinitializer, align 4
@proto_ip_option_record_route = internal global i32 0, align 4

; Function Attrs: null_pointer_is_valid sspstrong uwtable
define internal i32 @dissect_ipopt_record_route(ptr noundef %0, ptr noundef %1, ptr noundef %2, ptr noundef %3) #1 {
  %5 = alloca i32, align 4
  %6 = alloca ptr, align 8
  %7 = alloca ptr, align 8
  %8 = alloca ptr, align 8
  %9 = alloca ptr, align 8
  %10 = alloca ptr, align 8
  %11 = alloca ptr, align 8
  %12 = alloca i8, align 1
  %13 = alloca i8, align 1
  %14 = alloca i32, align 4
  %15 = alloca i32, align 4
  %16 = alloca i32, align 4
  %17 = alloca i32, align 4
  store ptr %0, ptr %6, align 8
  store ptr %1, ptr %7, align 8
  store ptr %2, ptr %8, align 8
  store ptr %3, ptr %9, align 8
  call void @llvm.lifetime.start.p0(i64 8, ptr %10) #12
  call void @llvm.lifetime.start.p0(i64 8, ptr %11) #12
  call void @llvm.lifetime.start.p0(i64 1, ptr %12) #12
  call void @llvm.lifetime.start.p0(i64 1, ptr %13) #12
  call void @llvm.lifetime.start.p0(i64 4, ptr %14) #12
  store i32 0, ptr %14, align 4
  call void @llvm.lifetime.start.p0(i64 4, ptr %15) #12
  store i32 0, ptr %15, align 4
  call void @llvm.lifetime.start.p0(i64 4, ptr %16) #12
  %18 = load ptr, ptr %6, align 8
  %19 = call i32 @tvb_reported_length(ptr noundef %18)
  store i32 %19, ptr %16, align 4
  %20 = load ptr, ptr %8, align 8
  %21 = load ptr, ptr %7, align 8
  %22 = load ptr, ptr %6, align 8
  %23 = load i32, ptr @proto_ip_option_record_route, align 4
  %24 = load i32, ptr @ett_ip_option_route, align 4
  %25 = load i32, ptr %16, align 4
  %26 = call ptr @ip_var_option_header(ptr noundef %20, ptr noundef %21, ptr noundef %22, i32 noundef %23, i32 noundef %24, ptr noundef %11, i32 noundef %25)
  store ptr %26, ptr %10, align 8
  %27 = load ptr, ptr %6, align 8
  %28 = load i32, ptr %15, align 4
  %29 = add i32 %28, 2
  %30 = call zeroext i8 @tvb_get_uint8(ptr noundef %27, i32 noundef %29)
  store i8 %30, ptr %13, align 1
  %31 = load ptr, ptr %10, align 8
  %32 = load i32, ptr @hf_ip_opt_ptr, align 4
  %33 = load ptr, ptr %6, align 8
  %34 = load i32, ptr %15, align 4
  %35 = add i32 %34, 2
  %36 = call ptr @proto_tree_add_item(ptr noundef %31, i32 noundef %32, ptr noundef %33, i32 noundef %35, i32 noundef 1, i32 noundef 0)
  store ptr %36, ptr %11, align 8
  %37 = load i8, ptr %13, align 1
  %38 = zext i8 %37 to i32
  %39 = icmp slt i32 %38, 4
  br i1 %39, label %45, label %40

40:                                               ; preds = %4
  %41 = load i8, ptr %13, align 1
  %42 = zext i8 %41 to i32
  %43 = and i32 %42, 3
  %44 = icmp ne i32 %43, 0
  br i1 %44, label %45, label %58

45:                                               ; preds = %40, %4
  %46 = load i8, ptr %13, align 1
  %47 = zext i8 %46 to i32
  %48 = icmp slt i32 %47, 4
  br i1 %48, label %49, label %53

49:                                               ; preds = %45
  %50 = load ptr, ptr %7, align 8
  %51 = load ptr, ptr %11, align 8
  %52 = call ptr @expert_add_info(ptr noundef %50, ptr noundef %51, ptr noundef @ei_ip_opt_ptr_before_address)
  br label %57

53:                                               ; preds = %45
  %54 = load ptr, ptr %7, align 8
  %55 = load ptr, ptr %11, align 8
  %56 = call ptr @expert_add_info(ptr noundef %54, ptr noundef %55, ptr noundef @ei_ip_opt_ptr_middle_address)
  br label %57

57:                                               ; preds = %53, %49
  store i32 3, ptr %5, align 4
  store i32 1, ptr %17, align 4
  br label %138

58:                                               ; preds = %40
  %59 = load i32, ptr %16, align 4
  %60 = trunc i32 %59 to i8
  store i8 %60, ptr %12, align 1
  store i32 3, ptr %14, align 4
  %61 = load i32, ptr %16, align 4
  %62 = sub i32 %61, 3
  store i32 %62, ptr %16, align 4
  br label %63

63:                                               ; preds = %130, %58
  %64 = load i32, ptr %16, align 4
  %65 = icmp sgt i32 %64, 0
  br i1 %65, label %66, label %135

66:                                               ; preds = %63
  %67 = load i32, ptr %16, align 4
  %68 = icmp slt i32 %67, 4
  br i1 %68, label %69, label %73

69:                                               ; preds = %66
  %70 = load ptr, ptr %7, align 8
  %71 = load ptr, ptr %11, align 8
  %72 = call ptr @expert_add_info(ptr noundef %70, ptr noundef %71, ptr noundef @ei_ip_subopt_too_long)
  br label %135

73:                                               ; preds = %66
  %74 = load i8, ptr %13, align 1
  %75 = zext i8 %74 to i32
  %76 = load i8, ptr %12, align 1
  %77 = zext i8 %76 to i32
  %78 = icmp sgt i32 %75, %77
  br i1 %78, label %79, label %88

79:                                               ; preds = %73
  %80 = load ptr, ptr %10, align 8
  %81 = load ptr, ptr %7, align 8
  %82 = load ptr, ptr %6, align 8
  %83 = load i32, ptr %15, align 4
  %84 = load i32, ptr %14, align 4
  %85 = add i32 %83, %84
  %86 = load i32, ptr @hf_ip_rec_rt, align 4
  %87 = load i32, ptr @hf_ip_rec_rt_host, align 4
  call void @dissect_option_route(ptr noundef %80, ptr noundef %81, ptr noundef %82, i32 noundef %85, i32 noundef %86, i32 noundef %87, i1 noundef zeroext false)
  br label %129

88:                                               ; preds = %73
  %89 = load i32, ptr %14, align 4
  %90 = add i32 %89, 1
  %91 = load i8, ptr %13, align 1
  %92 = zext i8 %91 to i32
  %93 = icmp slt i32 %90, %92
  br i1 %93, label %94, label %103

94:                                               ; preds = %88
  %95 = load ptr, ptr %10, align 8
  %96 = load ptr, ptr %7, align 8
  %97 = load ptr, ptr %6, align 8
  %98 = load i32, ptr %15, align 4
  %99 = load i32, ptr %14, align 4
  %100 = add i32 %98, %99
  %101 = load i32, ptr @hf_ip_rec_rt, align 4
  %102 = load i32, ptr @hf_ip_rec_rt_host, align 4
  call void @dissect_option_route(ptr noundef %95, ptr noundef %96, ptr noundef %97, i32 noundef %100, i32 noundef %101, i32 noundef %102, i1 noundef zeroext false)
  br label %128

103:                                              ; preds = %88
  %104 = load i32, ptr %14, align 4
  %105 = add i32 %104, 1
  %106 = load i8, ptr %13, align 1
  %107 = zext i8 %106 to i32
  %108 = icmp eq i32 %105, %107
  br i1 %108, label %109, label %118

109:                                              ; preds = %103
  %110 = load ptr, ptr %10, align 8
  %111 = load ptr, ptr %7, align 8
  %112 = load ptr, ptr %6, align 8
  %113 = load i32, ptr %15, align 4
  %114 = load i32, ptr %14, align 4
  %115 = add i32 %113, %114
  %116 = load i32, ptr @hf_ip_empty_rt, align 4
  %117 = load i32, ptr @hf_ip_empty_rt_host, align 4
  call void @dissect_option_route(ptr noundef %110, ptr noundef %111, ptr noundef %112, i32 noundef %115, i32 noundef %116, i32 noundef %117, i1 noundef zeroext true)
  br label %127

118:                                              ; preds = %103
  %119 = load ptr, ptr %10, align 8
  %120 = load ptr, ptr %7, align 8
  %121 = load ptr, ptr %6, align 8
  %122 = load i32, ptr %15, align 4
  %123 = load i32, ptr %14, align 4
  %124 = add i32 %122, %123
  %125 = load i32, ptr @hf_ip_empty_rt, align 4
  %126 = load i32, ptr @hf_ip_empty_rt_host, align 4
  call void @dissect_option_route(ptr noundef %119, ptr noundef %120, ptr noundef %121, i32 noundef %124, i32 noundef %125, i32 noundef %126, i1 noundef zeroext false)
  br label %127

127:                                              ; preds = %118, %109
  br label %128

128:                                              ; preds = %127, %94
  br label %129

129:                                              ; preds = %128, %79
  br label %130

130:                                              ; preds = %129
  %131 = load i32, ptr %16, align 4
  %132 = sub i32 %131, 4
  store i32 %132, ptr %16, align 4
  %133 = load i32, ptr %14, align 4
  %134 = add i32 %133, 4
  store i32 %134, ptr %14, align 4
  br label %63, !llvm.loop !17

135:                                              ; preds = %69, %63
  %136 = load ptr, ptr %6, align 8
  %137 = call i32 @tvb_captured_length(ptr noundef %136)
  store i32 %137, ptr %5, align 4
  store i32 1, ptr %17, align 4
  br label %138

138:                                              ; preds = %135, %57
  call void @llvm.lifetime.end.p0(i64 4, ptr %16) #12
  call void @llvm.lifetime.end.p0(i64 4, ptr %15) #12
  call void @llvm.lifetime.end.p0(i64 4, ptr %14) #12
  call void @llvm.lifetime.end.p0(i64 1, ptr %13) #12
  call void @llvm.lifetime.end.p0(i64 1, ptr %12) #12
  call void @llvm.lifetime.end.p0(i64 8, ptr %11) #12
  call void @llvm.lifetime.end.p0(i64 8, ptr %10) #12
  %139 = load i32, ptr %5, align 4
  ret i32 %139
}