; Function Attrs: null_pointer_is_valid sspstrong uwtable
define internal i32 @dissect_ipopt_record_route(ptr noundef %0, ptr noundef %1, ptr noundef %2, ptr readnone captures(none) %3) #1 {
  %5 = alloca ptr, align 8
  call void @llvm.lifetime.start.p0(i64 8, ptr nonnull %5) #9
  %6 = tail call i32 @tvb_reported_length(ptr noundef %0)
  %7 = load i32, ptr @proto_ip_option_record_route, align 4
  %8 = load i32, ptr @ett_ip_option_route, align 4
  %9 = call fastcc ptr @ip_var_option_header(ptr noundef %2, ptr noundef %1, ptr noundef %0, i32 noundef %7, i32 noundef %8, ptr noundef nonnull %5, i32 noundef %6)
  %10 = tail call zeroext i8 @tvb_get_uint8(ptr noundef %0, i32 noundef 2)
  %.fr = freeze i8 %10
  %11 = load i32, ptr @hf_ip_opt_ptr, align 4
  %12 = tail call ptr @proto_tree_add_item(ptr noundef %9, i32 noundef %11, ptr noundef %0, i32 noundef 2, i32 noundef 1, i32 noundef 0)
  %13 = zext i8 %.fr to i32
  %14 = icmp ugt i8 %.fr, 3
  %15 = and i32 %13, 3
  %.not = icmp eq i32 %15, 0
  %or.cond = and i1 %14, %.not
  br i1 %or.cond, label %21, label %16

16:                                               ; preds = %4
  br i1 %14, label %19, label %17

17:                                               ; preds = %16
  %18 = tail call ptr @expert_add_info(ptr noundef %1, ptr noundef %12, ptr noundef nonnull @ei_ip_opt_ptr_before_address)
  br label %50

19:                                               ; preds = %16
  %20 = tail call ptr @expert_add_info(ptr noundef %1, ptr noundef %12, ptr noundef nonnull @ei_ip_opt_ptr_middle_address)
  br label %50

21:                                               ; preds = %4
  %22 = add i32 %6, -3
  %23 = icmp sgt i32 %22, 0
  br i1 %23, label %.lr.ph, label %.loopexit

.lr.ph:                                           ; preds = %21
  %24 = and i32 %6, 255
  %25 = icmp samesign ult i32 %24, %13
  br i1 %25, label %.lr.ph.split.us, label %.lr.ph.split

.lr.ph.split.us:                                  ; preds = %.lr.ph, %27
  %.055.us = phi i32 [ %30, %27 ], [ %22, %.lr.ph ]
  %.05054.us = phi i32 [ %31, %27 ], [ 3, %.lr.ph ]
  %26 = icmp samesign ult i32 %.055.us, 4
  br i1 %26, label %.split.us, label %27

27:                                               ; preds = %.lr.ph.split.us
  %28 = load i32, ptr @hf_ip_rec_rt, align 4
  %29 = load i32, ptr @hf_ip_rec_rt_host, align 4
  tail call fastcc void @dissect_option_route(ptr noundef %9, ptr noundef %1, ptr noundef %0, i32 noundef %.05054.us, i32 noundef %28, i32 noundef %29, i1 noundef zeroext false)
  %30 = add nsw i32 %.055.us, -4
  %31 = add nuw i32 %.05054.us, 4
  %.not62 = icmp eq i32 %.055.us, 4
  br i1 %.not62, label %.loopexit, label %.lr.ph.split.us, !llvm.loop !21

.lr.ph.split:                                     ; preds = %.lr.ph, %46
  %.055 = phi i32 [ %47, %46 ], [ %22, %.lr.ph ]
  %.05054 = phi i32 [ %48, %46 ], [ 3, %.lr.ph ]
  %32 = icmp samesign ult i32 %.055, 4
  br i1 %32, label %.split.us, label %34

.split.us:                                        ; preds = %.lr.ph.split, %.lr.ph.split.us
  %33 = tail call ptr @expert_add_info(ptr noundef %1, ptr noundef %12, ptr noundef nonnull @ei_ip_subopt_too_long)
  br label %.loopexit

34:                                               ; preds = %.lr.ph.split
  %35 = add nuw i32 %.05054, 1
  %36 = icmp slt i32 %35, %13
  br i1 %36, label %37, label %40

37:                                               ; preds = %34
  %38 = load i32, ptr @hf_ip_rec_rt, align 4
  %39 = load i32, ptr @hf_ip_rec_rt_host, align 4
  tail call fastcc void @dissect_option_route(ptr noundef %9, ptr noundef %1, ptr noundef %0, i32 noundef %.05054, i32 noundef %38, i32 noundef %39, i1 noundef zeroext false)
  br label %46

40:                                               ; preds = %34
  %41 = icmp eq i32 %35, %13
  %42 = load i32, ptr @hf_ip_empty_rt, align 4
  %43 = load i32, ptr @hf_ip_empty_rt_host, align 4
  br i1 %41, label %44, label %45

44:                                               ; preds = %40
  tail call fastcc void @dissect_option_route(ptr noundef %9, ptr noundef %1, ptr noundef %0, i32 noundef %.05054, i32 noundef %42, i32 noundef %43, i1 noundef zeroext true)
  br label %46

45:                                               ; preds = %40
  tail call fastcc void @dissect_option_route(ptr noundef %9, ptr noundef %1, ptr noundef %0, i32 noundef %.05054, i32 noundef %42, i32 noundef %43, i1 noundef zeroext false)
  br label %46

46:                                               ; preds = %44, %45, %37
  %47 = add nsw i32 %.055, -4
  %48 = add nuw i32 %.05054, 4
  %.not61 = icmp eq i32 %.055, 4
  br i1 %.not61, label %.loopexit, label %.lr.ph.split, !llvm.loop !21

.loopexit:                                        ; preds = %46, %27, %21, %.split.us
  %49 = tail call i32 @tvb_captured_length(ptr noundef %0)
  br label %50

50:                                               ; preds = %17, %19, %.loopexit
  %.049 = phi i32 [ %49, %.loopexit ], [ 3, %19 ], [ 3, %17 ]
  call void @llvm.lifetime.end.p0(i64 8, ptr nonnull %5) #9
  ret i32 %.049
}